target datalayout = "e-m:e-p270:32:32-p271:32:32-p272:64:64-i64:64-i128:128-f80:128-n8:16:32:64-S128"
target triple = "x86_64-pc-linux-gnu"

%struct.pmix_class_t = type { ptr, ptr, ptr, ptr, i32, i32, ptr, ptr, i64 }
%struct.pmix_globals_t = type { i32, %struct.pmix_proc, %struct.pmix_value, %struct.pmix_value, ptr, i32, i32, ptr, i32, i32, i32, i32, i32, ptr, ptr, i32, %struct.pmix_events_t, i8, i8, %struct.timeval, %struct.pmix_list_t, %struct.pmix_pointer_array_t, i32, i32, %struct.pmix_hotel_t, i8, %struct.pmix_list_t, i8, i8, i8, i64, %struct.pmix_list_t, %struct.pmix_topology_t, %struct.pmix_cpuset_t, i8, i8, %struct.pmix_iof_flags_t, %struct.pmix_keyindex_t }
%struct.pmix_proc = type { [256 x i8], i32 }
%struct.pmix_value = type { i16, %union.anon.8 }
%union.anon.8 = type { %struct.pmix_envar_t }
%struct.pmix_envar_t = type { ptr, ptr, i8 }
%struct.pmix_events_t = type { %struct.pmix_object_t, i64, ptr, ptr, %struct.pmix_list_t, %struct.pmix_list_t, %struct.pmix_list_t, %struct.pmix_list_t }
%struct.pmix_object_t = type { %union.pthread_mutex_t, ptr, i32, %struct.pmix_tma }
%union.pthread_mutex_t = type { %struct.__pthread_mutex_s }
%struct.__pthread_mutex_s = type { i32, i32, i32, i32, i32, i16, i16, %struct.__pthread_internal_list }
%struct.__pthread_internal_list = type { ptr, ptr }
%struct.pmix_tma = type { ptr, ptr, ptr, ptr, ptr, ptr, ptr, ptr }
%struct.timeval = type { i64, i64 }
%struct.pmix_pointer_array_t = type { %struct.pmix_object_t, i32, i32, i32, i32, i32, ptr, ptr }
%struct.pmix_hotel_t = type { %struct.pmix_object_t, i32, ptr, %struct.timeval, ptr, ptr, ptr, ptr, i32 }
%struct.pmix_list_t = type { %struct.pmix_object_t, %struct.pmix_list_item_t, i64 }
%struct.pmix_list_item_t = type { %struct.pmix_object_t, ptr, ptr, i32 }
%struct.pmix_topology_t = type { ptr, ptr }
%struct.pmix_cpuset_t = type { ptr, ptr }
%struct.pmix_iof_flags_t = type { i8, i8, i8, i8, i8, i8, i8, ptr, ptr, i8, i8, i8, i8, i8, i8 }
%struct.pmix_keyindex_t = type { %struct.pmix_object_t, ptr, i32 }
%struct.pmix_pfexec_globals_t = type { ptr, i8, %struct.pmix_list_t, i32, i64, i8 }
%struct.event = type { %struct.event_callback, %union.anon.1, i32, ptr, %union.anon.3, i16, i16, %struct.timeval }
%struct.event_callback = type { %struct.anon.0, i16, i8, i8, %union.anon, ptr }
%struct.anon.0 = type { ptr, ptr }
%union.anon = type { ptr }
%union.anon.1 = type { %struct.anon.2 }
%struct.anon.2 = type { ptr, ptr }
%union.anon.3 = type { %struct.anon.4 }
%struct.anon.4 = type { %struct.anon.5, %struct.timeval }
%struct.anon.5 = type { ptr, ptr }
%struct.pmix_pfexec_child_t = type { %struct.pmix_list_item_t, %struct.event, %struct.pmix_proc, i32, i8, i32, [2 x i32], %struct.pmix_pfexec_base_io_conf_t, %struct.pmix_iof_sink_t, ptr, ptr }
%struct.pmix_pfexec_base_io_conf_t = type { i32, i8, [2 x i32], [2 x i32], [2 x i32] }
%struct.pmix_iof_sink_t = type { %struct.pmix_list_item_t, %struct.pmix_proc, i16, %struct.pmix_iof_write_event_t, i8, i8, i8 }
%struct.pmix_iof_write_event_t = type { %struct.pmix_list_item_t, i8, i8, i32, ptr, %struct.timeval, i32, %struct.pmix_list_t }
%struct.pmix_iof_read_event_t = type { %struct.pmix_object_t, %struct.event, %struct.timeval, i32, i8, ptr, i8, %struct.pmix_proc, i16, ptr, i64, ptr, i64 }
%struct.pmix_pfexec_cmpl_caddy_t = type { %struct.pmix_object_t, %struct.event, ptr }

@pmix_class_init_epoch = external global i32, align 4
@pmix_globals = external global %struct.pmix_globals_t, align 8
@pmix_pfexec_globals = external global %struct.pmix_pfexec_globals_t, align 8
@pmix_pfexec_cmpl_caddy_t_class = external global %struct.pmix_class_t, align 8

; Function Attrs: inlinehint nounwind uwtable
define internal void @pmix_obj_run_constructors(ptr noundef %0) #3 {
  %2 = alloca ptr, align 8
  %3 = alloca ptr, align 8
  store ptr %0, ptr %2, align 8, !tbaa !72
  call void @llvm.lifetime.start.p0(i64 8, ptr %3) #14
  %4 = load ptr, ptr %2, align 8, !tbaa !72
  %5 = getelementptr inbounds nuw %struct.pmix_object_t, ptr %4, i32 0, i32 1
  %6 = load ptr, ptr %5, align 8, !tbaa !58
  %7 = getelementptr inbounds nuw %struct.pmix_class_t, ptr %6, i32 0, i32 6
  %8 = load ptr, ptr %7, align 8, !tbaa !87
  store ptr %8, ptr %3, align 8, !tbaa !3
  br label %9

9:                                                ; preds = %13, %1
  %10 = load ptr, ptr %3, align 8, !tbaa !3
  %11 = load ptr, ptr %10, align 8, !tbaa !3
  %12 = icmp ne ptr null, %11
  br i1 %12, label %13, label %19

13:                                               ; preds = %9
  %14 = load ptr, ptr %3, align 8, !tbaa !3
  %15 = load ptr, ptr %14, align 8, !tbaa !3
  %16 = load ptr, ptr %2, align 8, !tbaa !72
  call void %15(ptr noundef %16)
  %17 = load ptr, ptr %3, align 8, !tbaa !3
  %18 = getelementptr inbounds nuw ptr, ptr %17, i32 1
  store ptr %18, ptr %3, align 8, !tbaa !3
  br label %9, !llvm.loop !88

19:                                               ; preds = %9
  call void @llvm.lifetime.end.p0(i64 8, ptr %3) #14
  ret void
}

; Function Attrs: inlinehint nounwind uwtable
define internal ptr @pmix_tma_malloc(ptr noundef %0, i64 noundef %1) #3 {
  %3 = alloca ptr, align 8
  %4 = alloca ptr, align 8
  %5 = alloca i64, align 8
  store ptr %0, ptr %4, align 8, !tbaa !77
  store i64 %1, ptr %5, align 8, !tbaa !96
  %6 = load ptr, ptr %4, align 8, !tbaa !77
  %7 = icmp ne ptr null, %6
  br i1 %7, label %8, label %15

8:                                                ; preds = %2
  %9 = load ptr, ptr %4, align 8, !tbaa !77
  %10 = getelementptr inbounds nuw %struct.pmix_tma, ptr %9, i32 0, i32 0
  %11 = load ptr, ptr %10, align 8, !tbaa !97
  %12 = load ptr, ptr %4, align 8, !tbaa !77
  %13 = load i64, ptr %5, align 8, !tbaa !96
  %14 = call ptr %11(ptr noundef %12, i64 noundef %13)
  store ptr %14, ptr %3, align 8
  br label %18

15:                                               ; preds = %2
  %16 = load i64, ptr %5, align 8, !tbaa !96
  %17 = call noalias ptr @malloc(i64 noundef %16) #15
  store ptr %17, ptr %3, align 8
  br label %18

18:                                               ; preds = %15, %8
  %19 = load ptr, ptr %3, align 8
  ret ptr %19
}

; Function Attrs: inlinehint nounwind uwtable
define internal void @pmix_atomic_wmb() #3 {
  fence release
  ret void
}

; Function Attrs: inlinehint nounwind uwtable
define internal ptr @pmix_obj_new_tma(ptr noundef %0, ptr noundef %1) #3 {
  %3 = alloca ptr, align 8
  %4 = alloca ptr, align 8
  %5 = alloca ptr, align 8
  store ptr %0, ptr %3, align 8, !tbaa !89
  store ptr %1, ptr %4, align 8, !tbaa !77
  call void @llvm.lifetime.start.p0(i64 8, ptr %5) #14
  %6 = load ptr, ptr %4, align 8, !tbaa !77
  %7 = load ptr, ptr %3, align 8, !tbaa !89
  %8 = getelementptr inbounds nuw %struct.pmix_class_t, ptr %7, i32 0, i32 8
  %9 = load i64, ptr %8, align 8, !tbaa !90
  %10 = call ptr @pmix_tma_malloc(ptr noundef %6, i64 noundef %9)
  store ptr %10, ptr %5, align 8, !tbaa !72
  %11 = load i32, ptr @pmix_class_init_epoch, align 4, !tbaa !55
  %12 = load ptr, ptr %3, align 8, !tbaa !89
  %13 = getelementptr inbounds nuw %struct.pmix_class_t, ptr %12, i32 0, i32 4
  %14 = load i32, ptr %13, align 8, !tbaa !56
  %15 = icmp ne i32 %11, %14
  br i1 %15, label %16, label %18

16:                                               ; preds = %2
  %17 = load ptr, ptr %3, align 8, !tbaa !89
  call void @pmix_class_initialize(ptr noundef %17)
  br label %18

18:                                               ; preds = %16, %2
  %19 = load ptr, ptr %5, align 8, !tbaa !72
  %20 = icmp ne ptr null, %19
  br i1 %20, label %21, label %60

21:                                               ; preds = %18
  %22 = load ptr, ptr %5, align 8, !tbaa !72
  %23 = getelementptr inbounds nuw %struct.pmix_object_t, ptr %22, i32 0, i32 0
  %24 = call i32 @pthread_mutex_init(ptr noundef %23, ptr noundef null) #14
  %25 = load ptr, ptr %3, align 8, !tbaa !89
  %26 = load ptr, ptr %5, align 8, !tbaa !72
  %27 = getelementptr inbounds nuw %struct.pmix_object_t, ptr %26, i32 0, i32 1
  store ptr %25, ptr %27, align 8, !tbaa !58
  %28 = load ptr, ptr %5, align 8, !tbaa !72
  %29 = getelementptr inbounds nuw %struct.pmix_object_t, ptr %28, i32 0, i32 2
  store i32 1, ptr %29, align 8, !tbaa !59
  %30 = load ptr, ptr %4, align 8, !tbaa !77
  %31 = icmp eq ptr null, %30
  br i1 %31, label %32, label %54

32:                                               ; preds = %21
  %33 = load ptr, ptr %5, align 8, !tbaa !72
  %34 = getelementptr inbounds nuw %struct.pmix_object_t, ptr %33, i32 0, i32 3
  %35 = getelementptr inbounds nuw %struct.pmix_tma, ptr %34, i32 0, i32 0
  store ptr null, ptr %35, align 8, !tbaa !79
  %36 = load ptr, ptr %5, align 8, !tbaa !72
  %37 = getelementptr inbounds nuw %struct.pmix_object_t, ptr %36, i32 0, i32 3
  %38 = getelementptr inbounds nuw %struct.pmix_tma, ptr %37, i32 0, i32 1
  store ptr null, ptr %38, align 8, !tbaa !80
  %39 = load ptr, ptr %5, align 8, !tbaa !72
  %40 = getelementptr inbounds nuw %struct.pmix_object_t, ptr %39, i32 0, i32 3
  %41 = getelementptr inbounds nuw %struct.pmix_tma, ptr %40, i32 0, i32 2
  store ptr null, ptr %41, align 8, !tbaa !81
  %42 = load ptr, ptr %5, align 8, !tbaa !72
  %43 = getelementptr inbounds nuw %struct.pmix_object_t, ptr %42, i32 0, i32 3
  %44 = getelementptr inbounds nuw %struct.pmix_tma, ptr %43, i32 0, i32 3
  store ptr null, ptr %44, align 8, !tbaa !82
  %45 = load ptr, ptr %5, align 8, !tbaa !72
  %46 = getelementptr inbounds nuw %struct.pmix_object_t, ptr %45, i32 0, i32 3
  %47 = getelementptr inbounds nuw %struct.pmix_tma, ptr %46, i32 0, i32 5
  store ptr null, ptr %47, align 8, !tbaa !74
  %48 = load ptr, ptr %5, align 8, !tbaa !72
  %49 = getelementptr inbounds nuw %struct.pmix_object_t, ptr %48, i32 0, i32 3
  %50 = getelementptr inbounds nuw %struct.pmix_tma, ptr %49, i32 0, i32 6
  store ptr null, ptr %50, align 8, !tbaa !84
  %51 = load ptr, ptr %5, align 8, !tbaa !72
  %52 = getelementptr inbounds nuw %struct.pmix_object_t, ptr %51, i32 0, i32 3
  %53 = getelementptr inbounds nuw %struct.pmix_tma, ptr %52, i32 0, i32 7
  store ptr null, ptr %53, align 8, !tbaa !85
  br label %58

54:                                               ; preds = %21
  %55 = load ptr, ptr %5, align 8, !tbaa !72
  %56 = getelementptr inbounds nuw %struct.pmix_object_t, ptr %55, i32 0, i32 3
  %57 = load ptr, ptr %4, align 8, !tbaa !77
  call void @llvm.memcpy.p0.p0.i64(ptr align 8 %56, ptr align 8 %57, i64 64, i1 false), !tbaa.struct !86
  br label %58

58:                                               ; preds = %54, %32
  %59 = load ptr, ptr %5, align 8, !tbaa !72
  call void @pmix_obj_run_constructors(ptr noundef %59)
  br label %60

60:                                               ; preds = %58, %18
  %61 = load ptr, ptr %5, align 8, !tbaa !72
  call void @llvm.lifetime.end.p0(i64 8, ptr %5) #14
  ret ptr %61
}

; Function Attrs: inlinehint nounwind uwtable
define internal i64 @pmix_list_get_size(ptr noundef %0) #3 {
  %2 = alloca ptr, align 8
  store ptr %0, ptr %2, align 8, !tbaa !119
  %3 = load ptr, ptr %2, align 8, !tbaa !119
  %4 = getelementptr inbounds nuw %struct.pmix_list_t, ptr %3, i32 0, i32 2
  %5 = load volatile i64, ptr %4, align 8, !tbaa !121
  ret i64 %5
}

; Function Attrs: inlinehint nounwind uwtable
define internal void @pmix_atomic_rmb() #3 {
  fence acquire
  ret void
}

; Function Attrs: nounwind uwtable
define internal void @wait_signal_callback(i32 noundef %0, i16 noundef signext %1, ptr noundef %2) #0 {
  %4 = alloca i32, align 4
  %5 = alloca i16, align 2
  %6 = alloca ptr, align 8
  %7 = alloca ptr, align 8
  %8 = alloca i32, align 4
  %9 = alloca i32, align 4
  %10 = alloca ptr, align 8
  %11 = alloca i32, align 4
  %12 = alloca ptr, align 8
  store i32 %0, ptr %4, align 4, !tbaa !55
  store i16 %1, ptr %5, align 2, !tbaa !98
  store ptr %2, ptr %6, align 8, !tbaa !3
  call void @llvm.lifetime.start.p0(i64 8, ptr %7) #14
  %13 = load ptr, ptr %6, align 8, !tbaa !3
  store ptr %13, ptr %7, align 8, !tbaa !99
  call void @llvm.lifetime.start.p0(i64 4, ptr %8) #14
  call void @llvm.lifetime.start.p0(i64 4, ptr %9) #14
  call void @llvm.lifetime.start.p0(i64 8, ptr %10) #14
  call void @pmix_atomic_rmb()
  %14 = load ptr, ptr %7, align 8, !tbaa !99
  %15 = call i32 @event_get_fd(ptr noundef %14)
  %16 = icmp ne i32 17, %15
  br i1 %16, label %17, label %18

17:                                               ; preds = %3
  store i32 1, ptr %11, align 4
  br label %121

18:                                               ; preds = %3
  %19 = call i64 @pmix_list_get_size(ptr noundef getelementptr inbounds nuw (%struct.pmix_pfexec_globals_t, ptr @pmix_pfexec_globals, i32 0, i32 2))
  %20 = icmp eq i64 0, %19
  br i1 %20, label %21, label %22

21:                                               ; preds = %18
  store i32 1, ptr %11, align 4
  br label %121

22:                                               ; preds = %18
  br label %23

23:                                               ; preds = %120, %32, %22
  br label %24

24:                                               ; preds = %23
  %25 = call i32 @waitpid(i32 noundef -1, ptr noundef %8, i32 noundef 1)
  store i32 %25, ptr %9, align 4, !tbaa !55
  %26 = load i32, ptr %9, align 4, !tbaa !55
  %27 = icmp eq i32 -1, %26
  br i1 %27, label %28, label %33

28:                                               ; preds = %24
  %29 = call ptr @__errno_location() #16
  %30 = load i32, ptr %29, align 4, !tbaa !55
  %31 = icmp eq i32 4, %30
  br i1 %31, label %32, label %33

32:                                               ; preds = %28
  br label %23

33:                                               ; preds = %28, %24
  %34 = load i32, ptr %9, align 4, !tbaa !55
  %35 = icmp sle i32 %34, 0
  br i1 %35, label %36, label %37

36:                                               ; preds = %33
  store i32 1, ptr %11, align 4
  br label %121

37:                                               ; preds = %33
  %38 = load ptr, ptr getelementptr inbounds nuw (%struct.pmix_list_item_t, ptr getelementptr inbounds nuw (%struct.pmix_list_t, ptr getelementptr inbounds nuw (%struct.pmix_pfexec_globals_t, ptr @pmix_pfexec_globals, i32 0, i32 2), i32 0, i32 1), i32 0, i32 1), align 8, !tbaa !100
  store ptr %38, ptr %10, align 8, !tbaa !3
  br label %39

39:                                               ; preds = %116, %37
  %40 = load ptr, ptr %10, align 8, !tbaa !3
  %41 = icmp ne ptr %40, getelementptr inbounds nuw (%struct.pmix_list_t, ptr getelementptr inbounds nuw (%struct.pmix_pfexec_globals_t, ptr @pmix_pfexec_globals, i32 0, i32 2), i32 0, i32 1)
  br i1 %41, label %42, label %120

42:                                               ; preds = %39
  %43 = load i32, ptr %9, align 4, !tbaa !55
  %44 = load ptr, ptr %10, align 8, !tbaa !3
  %45 = getelementptr inbounds nuw %struct.pmix_pfexec_child_t, ptr %44, i32 0, i32 3
  %46 = load i32, ptr %45, align 4, !tbaa !101
  %47 = icmp eq i32 %43, %46
  br i1 %47, label %48, label %115

48:                                               ; preds = %42
  %49 = load i32, ptr %8, align 4, !tbaa !55
  %50 = and i32 %49, 127
  %51 = icmp eq i32 %50, 0
  br i1 %51, label %52, label %58

52:                                               ; preds = %48
  %53 = load i32, ptr %8, align 4, !tbaa !55
  %54 = and i32 %53, 65280
  %55 = ashr i32 %54, 8
  %56 = load ptr, ptr %10, align 8, !tbaa !3
  %57 = getelementptr inbounds nuw %struct.pmix_pfexec_child_t, ptr %56, i32 0, i32 5
  store i32 %55, ptr %57, align 4, !tbaa !106
  br label %73

58:                                               ; preds = %48
  %59 = load i32, ptr %8, align 4, !tbaa !55
  %60 = and i32 %59, 127
  %61 = add nsw i32 %60, 1
  %62 = trunc i32 %61 to i8
  %63 = sext i8 %62 to i32
  %64 = ashr i32 %63, 1
  %65 = icmp sgt i32 %64, 0
  br i1 %65, label %66, label %72

66:                                               ; preds = %58
  %67 = load i32, ptr %8, align 4, !tbaa !55
  %68 = and i32 %67, 127
  %69 = add nsw i32 %68, 128
  %70 = load ptr, ptr %10, align 8, !tbaa !3
  %71 = getelementptr inbounds nuw %struct.pmix_pfexec_child_t, ptr %70, i32 0, i32 5
  store i32 %69, ptr %71, align 4, !tbaa !106
  br label %72

72:                                               ; preds = %66, %58
  br label %73

73:                                               ; preds = %72, %52
  %74 = load ptr, ptr %10, align 8, !tbaa !3
  %75 = getelementptr inbounds nuw %struct.pmix_pfexec_child_t, ptr %74, i32 0, i32 4
  store i8 1, ptr %75, align 8, !tbaa !107
  %76 = load ptr, ptr %10, align 8, !tbaa !3
  %77 = getelementptr inbounds nuw %struct.pmix_pfexec_child_t, ptr %76, i32 0, i32 9
  %78 = load ptr, ptr %77, align 8, !tbaa !108
  %79 = icmp eq ptr null, %78
  br i1 %79, label %87, label %80

80:                                               ; preds = %73
  %81 = load ptr, ptr %10, align 8, !tbaa !3
  %82 = getelementptr inbounds nuw %struct.pmix_pfexec_child_t, ptr %81, i32 0, i32 9
  %83 = load ptr, ptr %82, align 8, !tbaa !108
  %84 = getelementptr inbounds nuw %struct.pmix_iof_read_event_t, ptr %83, i32 0, i32 4
  %85 = load i8, ptr %84, align 4, !tbaa !109, !range !67, !noundef !68
  %86 = trunc i8 %85 to i1
  br i1 %86, label %114, label %87

87:                                               ; preds = %80, %73
  %88 = load ptr, ptr %10, align 8, !tbaa !3
  %89 = getelementptr inbounds nuw %struct.pmix_pfexec_child_t, ptr %88, i32 0, i32 10
  %90 = load ptr, ptr %89, align 8, !tbaa !111
  %91 = icmp eq ptr null, %90
  br i1 %91, label %99, label %92

92:                                               ; preds = %87
  %93 = load ptr, ptr %10, align 8, !tbaa !3
  %94 = getelementptr inbounds nuw %struct.pmix_pfexec_child_t, ptr %93, i32 0, i32 10
  %95 = load ptr, ptr %94, align 8, !tbaa !111
  %96 = getelementptr inbounds nuw %struct.pmix_iof_read_event_t, ptr %95, i32 0, i32 4
  %97 = load i8, ptr %96, align 4, !tbaa !109, !range !67, !noundef !68
  %98 = trunc i8 %97 to i1
  br i1 %98, label %114, label %99

99:                                               ; preds = %92, %87
  br label %100

100:                                              ; preds = %99
  call void @llvm.lifetime.start.p0(i64 8, ptr %12) #14
  %101 = call ptr @pmix_obj_new_tma(ptr noundef @pmix_pfexec_cmpl_caddy_t_class, ptr noundef null)
  store ptr %101, ptr %12, align 8, !tbaa !3
  %102 = load ptr, ptr %10, align 8, !tbaa !3
  %103 = load ptr, ptr %12, align 8, !tbaa !3
  %104 = getelementptr inbounds nuw %struct.pmix_pfexec_cmpl_caddy_t, ptr %103, i32 0, i32 2
  store ptr %102, ptr %104, align 8, !tbaa !112
  %105 = load ptr, ptr %12, align 8, !tbaa !3
  %106 = getelementptr inbounds nuw %struct.pmix_pfexec_cmpl_caddy_t, ptr %105, i32 0, i32 1
  %107 = load ptr, ptr getelementptr inbounds nuw (%struct.pmix_globals_t, ptr @pmix_globals, i32 0, i32 13), align 8, !tbaa !52
  %108 = load ptr, ptr %12, align 8, !tbaa !3
  %109 = call i32 @pmix_event_assign(ptr noundef %106, ptr noundef %107, i32 noundef -1, i16 noundef signext 4, ptr noundef @pmix_pfexec_check_complete, ptr noundef %108)
  call void @pmix_atomic_wmb()
  %110 = load ptr, ptr %12, align 8, !tbaa !3
  %111 = getelementptr inbounds nuw %struct.pmix_pfexec_cmpl_caddy_t, ptr %110, i32 0, i32 1
  call void @event_active(ptr noundef %111, i32 noundef 4, i16 noundef signext 1)
  call void @llvm.lifetime.end.p0(i64 8, ptr %12) #14
  br label %112

112:                                              ; preds = %100
  br label %113

113:                                              ; preds = %112
  br label %114

114:                                              ; preds = %113, %92, %80
  br label %120

115:                                              ; preds = %42
  br label %116

116:                                              ; preds = %115
  %117 = load ptr, ptr %10, align 8, !tbaa !3
  %118 = getelementptr inbounds nuw %struct.pmix_list_item_t, ptr %117, i32 0, i32 1
  %119 = load ptr, ptr %118, align 8, !tbaa !114
  store ptr %119, ptr %10, align 8, !tbaa !3
  br label %39, !llvm.loop !115

120:                                              ; preds = %114, %39
  br label %23

121:                                              ; preds = %36, %21, %17
  call void @llvm.lifetime.end.p0(i64 8, ptr %10) #14
  call void @llvm.lifetime.end.p0(i64 4, ptr %9) #14
  call void @llvm.lifetime.end.p0(i64 4, ptr %8) #14
  call void @llvm.lifetime.end.p0(i64 8, ptr %7) #14
  ret void
}