; Function Attrs: nounwind uwtable
define internal void @wait_signal_callback(i32 %0, i16 signext %1, ptr noundef %2) #0 {
  %4 = alloca i32, align 4
  call void @llvm.lifetime.start.p0(i64 4, ptr nonnull %4) #18
  fence acquire
  %5 = tail call i32 @event_get_fd(ptr noundef %2) #18
  %.not = icmp eq i32 %5, 17
  br i1 %.not, label %6, label %.thread

6:                                                ; preds = %3
  %7 = load volatile i64, ptr getelementptr inbounds nuw (i8, ptr @pmix_pfexec_globals, i64 280), align 8, !tbaa !79
  %8 = icmp eq i64 %7, 0
  br i1 %8, label %.thread, label %.preheader24

.preheader24:                                     ; preds = %6, %.preheader24.backedge
  %9 = call i32 @waitpid(i32 noundef -1, ptr noundef nonnull %4, i32 noundef 1) #18
  %10 = icmp eq i32 %9, -1
  br i1 %10, label %11, label %15

11:                                               ; preds = %.preheader24
  %12 = tail call ptr @__errno_location() #20
  %13 = load i32, ptr %12, align 4, !tbaa !52
  %14 = icmp eq i32 %13, 4
  br i1 %14, label %.preheader24.backedge, label %.thread

15:                                               ; preds = %.preheader24
  %16 = icmp slt i32 %9, 1
  br i1 %16, label %.thread, label %.preheader

.preheader:                                       ; preds = %15
  %.026 = load ptr, ptr getelementptr inbounds nuw (i8, ptr @pmix_pfexec_globals, i64 256), align 8, !tbaa !80
  %.not2327 = icmp eq ptr %.026, getelementptr inbounds nuw (i8, ptr @pmix_pfexec_globals, i64 136)
  br i1 %.not2327, label %.preheader24.backedge, label %.lr.ph

.lr.ph:                                           ; preds = %.preheader, %72
  %.028 = phi ptr [ %.0, %72 ], [ %.026, %.preheader ]
  %17 = getelementptr inbounds nuw i8, ptr %.028, i64 532
  %18 = load i32, ptr %17, align 4, !tbaa !81
  %19 = icmp eq i32 %9, %18
  br i1 %19, label %20, label %72

20:                                               ; preds = %.lr.ph
  %21 = load i32, ptr %4, align 4, !tbaa !52
  %22 = and i32 %21, 127
  %23 = icmp eq i32 %22, 0
  br i1 %23, label %24, label %27

24:                                               ; preds = %20
  %25 = lshr i32 %21, 8
  %26 = and i32 %25, 255
  br label %.sink.split

27:                                               ; preds = %20
  %28 = shl nuw nsw i32 %22, 24
  %sext = add nuw i32 %28, 16777216
  %29 = icmp sgt i32 %sext, 33554431
  br i1 %29, label %30, label %33

30:                                               ; preds = %27
  %31 = or disjoint i32 %22, 128
  br label %.sink.split

.sink.split:                                      ; preds = %24, %30
  %.sink = phi i32 [ %31, %30 ], [ %26, %24 ]
  %32 = getelementptr inbounds nuw i8, ptr %.028, i64 540
  store i32 %.sink, ptr %32, align 4, !tbaa !86
  br label %33

33:                                               ; preds = %.sink.split, %27
  %34 = getelementptr inbounds nuw i8, ptr %.028, i64 536
  store i8 1, ptr %34, align 8, !tbaa !87
  %35 = getelementptr inbounds nuw i8, ptr %.028, i64 1456
  %36 = load ptr, ptr %35, align 8, !tbaa !88
  %37 = icmp eq ptr %36, null
  br i1 %37, label %42, label %38

38:                                               ; preds = %33
  %39 = getelementptr inbounds nuw i8, ptr %36, i64 268
  %40 = load i8, ptr %39, align 4, !tbaa !89, !range !70, !noundef !71
  %41 = trunc nuw i8 %40 to i1
  br i1 %41, label %.preheader24.backedge, label %42

42:                                               ; preds = %38, %33
  %43 = getelementptr inbounds nuw i8, ptr %.028, i64 1464
  %44 = load ptr, ptr %43, align 8, !tbaa !91
  %45 = icmp eq ptr %44, null
  br i1 %45, label %50, label %46

46:                                               ; preds = %42
  %47 = getelementptr inbounds nuw i8, ptr %44, i64 268
  %48 = load i8, ptr %47, align 4, !tbaa !89, !range !70, !noundef !71
  %49 = trunc nuw i8 %48 to i1
  br i1 %49, label %.preheader24.backedge, label %50

50:                                               ; preds = %42, %46
  %51 = load i64, ptr getelementptr inbounds nuw (i8, ptr @pmix_pfexec_cmpl_caddy_t_class, i64 56), align 8, !tbaa !64
  %52 = call noalias noundef ptr @malloc(i64 noundef %51) #19
  %53 = load i32, ptr @pmix_class_init_epoch, align 4, !tbaa !52
  %54 = load i32, ptr getelementptr inbounds nuw (i8, ptr @pmix_pfexec_cmpl_caddy_t_class, i64 32), align 8, !tbaa !53
  %.not.i = icmp eq i32 %53, %54
  br i1 %.not.i, label %56, label %55

55:                                               ; preds = %50
  call void @pmix_class_initialize(ptr noundef nonnull @pmix_pfexec_cmpl_caddy_t_class) #18
  br label %56

56:                                               ; preds = %55, %50
  %.not22.i = icmp eq ptr %52, null
  br i1 %.not22.i, label %pmix_obj_new_tma.exit, label %57

57:                                               ; preds = %56
  %58 = call i32 @pthread_mutex_init(ptr noundef nonnull %52, ptr noundef null) #18
  %59 = getelementptr inbounds nuw i8, ptr %52, i64 40
  store ptr @pmix_pfexec_cmpl_caddy_t_class, ptr %59, align 8, !tbaa !55
  %60 = getelementptr inbounds nuw i8, ptr %52, i64 48
  store i32 1, ptr %60, align 8, !tbaa !56
  %61 = getelementptr inbounds nuw i8, ptr %52, i64 56
  %62 = getelementptr inbounds nuw i8, ptr %52, i64 96
  call void @llvm.memset.p0.i64(ptr noundef nonnull align 8 dereferenceable(32) %61, i8 0, i64 32, i1 false)
  call void @llvm.memset.p0.i64(ptr noundef nonnull align 8 dereferenceable(24) %62, i8 0, i64 24, i1 false)
  %63 = load ptr, ptr getelementptr inbounds nuw (i8, ptr @pmix_pfexec_cmpl_caddy_t_class, i64 40), align 8, !tbaa !57
  %64 = load ptr, ptr %63, align 8, !tbaa !58
  %.not6.i.i = icmp eq ptr %64, null
  br i1 %.not6.i.i, label %pmix_obj_new_tma.exit, label %.lr.ph.i.i

.lr.ph.i.i:                                       ; preds = %57, %.lr.ph.i.i
  %65 = phi ptr [ %67, %.lr.ph.i.i ], [ %64, %57 ]
  %.07.i.i = phi ptr [ %66, %.lr.ph.i.i ], [ %63, %57 ]
  call void %65(ptr noundef nonnull %52) #18
  %66 = getelementptr inbounds nuw i8, ptr %.07.i.i, i64 8
  %67 = load ptr, ptr %66, align 8, !tbaa !58
  %.not.i.i = icmp eq ptr %67, null
  br i1 %.not.i.i, label %pmix_obj_new_tma.exit, label %.lr.ph.i.i, !llvm.loop !59

pmix_obj_new_tma.exit:                            ; preds = %.lr.ph.i.i, %56, %57
  %68 = getelementptr inbounds nuw i8, ptr %52, i64 248
  store ptr %.028, ptr %68, align 8, !tbaa !92
  %69 = getelementptr inbounds nuw i8, ptr %52, i64 120
  %70 = load ptr, ptr getelementptr inbounds nuw (i8, ptr @pmix_globals, i64 376), align 8, !tbaa !51
  %71 = call i32 @pmix_event_assign(ptr noundef nonnull %69, ptr noundef %70, i32 noundef -1, i16 noundef signext 4, ptr noundef nonnull @pmix_pfexec_check_complete, ptr noundef %52) #18
  fence release
  call void @event_active(ptr noundef nonnull %69, i32 noundef 4, i16 noundef signext 1) #18
  br label %.preheader24.backedge

.preheader24.backedge:                            ; preds = %72, %pmix_obj_new_tma.exit, %46, %38, %.preheader, %11
  br label %.preheader24

72:                                               ; preds = %.lr.ph
  %73 = getelementptr inbounds nuw i8, ptr %.028, i64 120
  %.0 = load ptr, ptr %73, align 8, !tbaa !80
  %.not23 = icmp eq ptr %.0, getelementptr inbounds nuw (i8, ptr @pmix_pfexec_globals, i64 136)
  br i1 %.not23, label %.preheader24.backedge, label %.lr.ph, !llvm.loop !94

.thread:                                          ; preds = %11, %15, %6, %3
  call void @llvm.lifetime.end.p0(i64 4, ptr nonnull %4) #18
  ret void
}